target datalayout = "e-m:e-p270:32:32-p271:32:32-p272:64:64-i64:64-i128:128-f80:128-n8:16:32:64-S128"
target triple = "x86_64-pc-linux-gnu"

%struct.H5C_class_t = type { i32, ptr, i32, i32, ptr, ptr, ptr, ptr, ptr, ptr, ptr, ptr, ptr, ptr }
%struct.H5G_node_t = type { %struct.H5C_cache_entry_t, i64, i32, ptr }
%struct.H5C_cache_entry_t = type { ptr, i64, i64, ptr, i8, ptr, i8, i8, i8, i8, i32, i8, i8, i8, i8, i8, i32, ptr, i32, i32, i32, i32, i32, i8, i8, ptr, ptr, ptr, ptr, ptr, ptr, i8, i32, i8, i64, ptr, i64, i64, i32, i8, i32, i32, i8, ptr, ptr, ptr }
%struct.H5G_entry_t = type { i32, %union.H5G_cache_t, i64, i64 }
%union.H5G_cache_t = type { %struct.anon }
%struct.anon = type { i64, i64 }
%struct.H5O_link_t = type { i32, i8, i64, i32, ptr, %union.anon }
%union.anon = type { %struct.H5O_link_ud_t }
%struct.H5O_link_ud_t = type { ptr, i64 }
%struct.H5G_bt_it_bt_t = type { i64, ptr, ptr }
%struct.H5G_link_table_t = type { i64, ptr }

@H5G_init_g = external global i8, align 1
@H5_libterm_g = external global i8, align 1
@H5AC_SNODE = external constant [1 x %struct.H5C_class_t], align 16
@.str.2 = private unnamed_addr constant [101 x i8] c"generated/home/dtcxzyw/WorkSpace/Projects/compilers/llvm-opt-benchmark/bench/hdf5/hdf5/src/H5Gnode.c\00", align 1
@H5E_SYM_g = external global i64, align 8
@H5E_CANTPROTECT_g = external global i64, align 8
@.str.3 = private unnamed_addr constant [33 x i8] c"unable to load symbol table node\00", align 1
@H5E_CANTCONVERT_g = external global i64, align 8
@.str.4 = private unnamed_addr constant [45 x i8] c"unable to convert symbol table entry to link\00", align 1
@H5E_CANTUNPROTECT_g = external global i64, align 8
@.str.7 = private unnamed_addr constant [32 x i8] c"unable to release object header\00", align 1
@__func__.H5G__node_build_table = private unnamed_addr constant [22 x i8] c"H5G__node_build_table\00", align 1
@H5E_CANTALLOC_g = external global i64, align 8
@.str.17 = private unnamed_addr constant [25 x i8] c"memory allocation failed\00", align 1

; Function Attrs: nounwind uwtable
define i32 @H5G__node_build_table(ptr noundef %0, ptr noundef %1, i64 noundef %2, ptr noundef %3, ptr noundef %4) #0 {
  %6 = alloca i32, align 4
  %7 = alloca ptr, align 8
  %8 = alloca ptr, align 8
  %9 = alloca i64, align 8
  %10 = alloca ptr, align 8
  %11 = alloca ptr, align 8
  %12 = alloca ptr, align 8
  %13 = alloca ptr, align 8
  %14 = alloca i32, align 4
  %15 = alloca i32, align 4
  %16 = alloca i8, align 1
  %17 = alloca i64, align 8
  %18 = alloca ptr, align 8
  %19 = alloca i32, align 4
  %20 = alloca i64, align 8
  store ptr %0, ptr %7, align 8, !tbaa !3
  store ptr %1, ptr %8, align 8, !tbaa !8
  store i64 %2, ptr %9, align 8, !tbaa !21
  store ptr %3, ptr %10, align 8, !tbaa !8
  store ptr %4, ptr %11, align 8, !tbaa !8
  call void @llvm.lifetime.start.p0(i64 8, ptr %12) #8
  %21 = load ptr, ptr %11, align 8, !tbaa !8
  store ptr %21, ptr %12, align 8, !tbaa !152
  call void @llvm.lifetime.start.p0(i64 8, ptr %13) #8
  store ptr null, ptr %13, align 8, !tbaa !19
  call void @llvm.lifetime.start.p0(i64 4, ptr %14) #8
  call void @llvm.lifetime.start.p0(i64 4, ptr %15) #8
  store i32 0, ptr %15, align 4, !tbaa !13
  call void @llvm.lifetime.start.p0(i64 1, ptr %16) #8
  store i8 0, ptr %16, align 1, !tbaa !9
  %22 = load i8, ptr @H5G_init_g, align 1, !tbaa !9, !range !11, !noundef !12
  %23 = trunc i8 %22 to i1
  br i1 %23, label %28, label %24

24:                                               ; preds = %5
  %25 = load i8, ptr @H5_libterm_g, align 1, !tbaa !9, !range !11, !noundef !12
  %26 = trunc i8 %25 to i1
  %27 = xor i1 %26, true
  br label %28

28:                                               ; preds = %24, %5
  %29 = phi i1 [ true, %5 ], [ %27, %24 ]
  %30 = xor i1 %29, true
  %31 = xor i1 %30, true
  %32 = zext i1 %31 to i32
  %33 = sext i32 %32 to i64
  %34 = call i64 @llvm.expect.i64(i64 %33, i64 1)
  %35 = icmp ne i64 %34, 0
  br i1 %35, label %36, label %232

36:                                               ; preds = %28
  %37 = load ptr, ptr %7, align 8, !tbaa !3
  %38 = load i64, ptr %9, align 8, !tbaa !21
  %39 = load ptr, ptr %7, align 8, !tbaa !3
  %40 = call ptr @H5AC_protect(ptr noundef %37, ptr noundef @H5AC_SNODE, i64 noundef %38, ptr noundef %39, i32 noundef 128)
  store ptr %40, ptr %13, align 8, !tbaa !19
  %41 = icmp eq ptr null, %40
  br i1 %41, label %42, label %61

42:                                               ; preds = %36
  br label %43

43:                                               ; preds = %42
  br label %44

44:                                               ; preds = %43
  br label %45

45:                                               ; preds = %44
  %46 = load i64, ptr @H5E_SYM_g, align 8, !tbaa !21
  %47 = load i64, ptr @H5E_CANTPROTECT_g, align 8, !tbaa !21
  %48 = call i32 (ptr, ptr, i32, i64, i64, ptr, ...) @H5E_printf_stack(ptr noundef @.str.2, ptr noundef @__func__.H5G__node_build_table, i32 noundef 1326, i64 noundef %46, i64 noundef %47, ptr noundef @.str.3)
  br label %49

49:                                               ; preds = %45
  br label %50

50:                                               ; preds = %49
  store i8 1, ptr %16, align 1, !tbaa !9
  %51 = load i8, ptr %16, align 1, !tbaa !9, !range !11, !noundef !12
  %52 = trunc i8 %51 to i1
  %53 = zext i1 %52 to i8
  store i8 %53, ptr %16, align 1, !tbaa !9
  br label %54

54:                                               ; preds = %50
  br label %55

55:                                               ; preds = %54
  br label %56

56:                                               ; preds = %55
  store i32 -1, ptr %15, align 4, !tbaa !13
  br label %206

57:                                               ; No predecessors!
  br label %58

58:                                               ; preds = %57
  br label %59

59:                                               ; preds = %58
  br label %60

60:                                               ; preds = %59
  br label %61

61:                                               ; preds = %60, %36
  %62 = load ptr, ptr %12, align 8, !tbaa !152
  %63 = getelementptr inbounds nuw %struct.H5G_bt_it_bt_t, ptr %62, i32 0, i32 2
  %64 = load ptr, ptr %63, align 8, !tbaa !154
  %65 = getelementptr inbounds nuw %struct.H5G_link_table_t, ptr %64, i32 0, i32 0
  %66 = load i64, ptr %65, align 8, !tbaa !156
  %67 = load ptr, ptr %13, align 8, !tbaa !19
  %68 = getelementptr inbounds nuw %struct.H5G_node_t, ptr %67, i32 0, i32 2
  %69 = load i32, ptr %68, align 8, !tbaa !48
  %70 = zext i32 %69 to i64
  %71 = add i64 %66, %70
  %72 = load ptr, ptr %12, align 8, !tbaa !152
  %73 = getelementptr inbounds nuw %struct.H5G_bt_it_bt_t, ptr %72, i32 0, i32 0
  %74 = load i64, ptr %73, align 8, !tbaa !158
  %75 = icmp uge i64 %71, %74
  br i1 %75, label %76, label %147

76:                                               ; preds = %61
  call void @llvm.lifetime.start.p0(i64 8, ptr %17) #8
  %77 = load ptr, ptr %12, align 8, !tbaa !152
  %78 = getelementptr inbounds nuw %struct.H5G_bt_it_bt_t, ptr %77, i32 0, i32 2
  %79 = load ptr, ptr %78, align 8, !tbaa !154
  %80 = getelementptr inbounds nuw %struct.H5G_link_table_t, ptr %79, i32 0, i32 0
  %81 = load i64, ptr %80, align 8, !tbaa !156
  %82 = load ptr, ptr %13, align 8, !tbaa !19
  %83 = getelementptr inbounds nuw %struct.H5G_node_t, ptr %82, i32 0, i32 2
  %84 = load i32, ptr %83, align 8, !tbaa !48
  %85 = zext i32 %84 to i64
  %86 = add i64 %81, %85
  %87 = load ptr, ptr %12, align 8, !tbaa !152
  %88 = getelementptr inbounds nuw %struct.H5G_bt_it_bt_t, ptr %87, i32 0, i32 0
  %89 = load i64, ptr %88, align 8, !tbaa !158
  %90 = mul i64 %89, 2
  %91 = icmp ugt i64 %86, %90
  br i1 %91, label %92, label %103

92:                                               ; preds = %76
  %93 = load ptr, ptr %12, align 8, !tbaa !152
  %94 = getelementptr inbounds nuw %struct.H5G_bt_it_bt_t, ptr %93, i32 0, i32 2
  %95 = load ptr, ptr %94, align 8, !tbaa !154
  %96 = getelementptr inbounds nuw %struct.H5G_link_table_t, ptr %95, i32 0, i32 0
  %97 = load i64, ptr %96, align 8, !tbaa !156
  %98 = load ptr, ptr %13, align 8, !tbaa !19
  %99 = getelementptr inbounds nuw %struct.H5G_node_t, ptr %98, i32 0, i32 2
  %100 = load i32, ptr %99, align 8, !tbaa !48
  %101 = zext i32 %100 to i64
  %102 = add i64 %97, %101
  br label %108

103:                                              ; preds = %76
  %104 = load ptr, ptr %12, align 8, !tbaa !152
  %105 = getelementptr inbounds nuw %struct.H5G_bt_it_bt_t, ptr %104, i32 0, i32 0
  %106 = load i64, ptr %105, align 8, !tbaa !158
  %107 = mul i64 %106, 2
  br label %108

108:                                              ; preds = %103, %92
  %109 = phi i64 [ %102, %92 ], [ %107, %103 ]
  store i64 %109, ptr %17, align 8, !tbaa !21
  call void @llvm.lifetime.start.p0(i64 8, ptr %18) #8
  %110 = load ptr, ptr %12, align 8, !tbaa !152
  %111 = getelementptr inbounds nuw %struct.H5G_bt_it_bt_t, ptr %110, i32 0, i32 2
  %112 = load ptr, ptr %111, align 8, !tbaa !154
  %113 = getelementptr inbounds nuw %struct.H5G_link_table_t, ptr %112, i32 0, i32 1
  %114 = load ptr, ptr %113, align 8, !tbaa !159
  %115 = load i64, ptr %17, align 8, !tbaa !21
  %116 = mul i64 48, %115
  %117 = call ptr @H5MM_realloc(ptr noundef %114, i64 noundef %116)
  store ptr %117, ptr %18, align 8, !tbaa !160
  %118 = icmp eq ptr null, %117
  br i1 %118, label %119, label %138

119:                                              ; preds = %108
  br label %120

120:                                              ; preds = %119
  br label %121

121:                                              ; preds = %120
  br label %122

122:                                              ; preds = %121
  %123 = load i64, ptr @H5E_SYM_g, align 8, !tbaa !21
  %124 = load i64, ptr @H5E_CANTALLOC_g, align 8, !tbaa !21
  %125 = call i32 (ptr, ptr, i32, i64, i64, ptr, ...) @H5E_printf_stack(ptr noundef @.str.2, ptr noundef @__func__.H5G__node_build_table, i32 noundef 1336, i64 noundef %123, i64 noundef %124, ptr noundef @.str.17)
  br label %126

126:                                              ; preds = %122
  br label %127

127:                                              ; preds = %126
  store i8 1, ptr %16, align 1, !tbaa !9
  %128 = load i8, ptr %16, align 1, !tbaa !9, !range !11, !noundef !12
  %129 = trunc i8 %128 to i1
  %130 = zext i1 %129 to i8
  store i8 %130, ptr %16, align 1, !tbaa !9
  br label %131

131:                                              ; preds = %127
  br label %132

132:                                              ; preds = %131
  br label %133

133:                                              ; preds = %132
  store i32 -1, ptr %15, align 4, !tbaa !13
  store i32 10, ptr %19, align 4
  br label %144

134:                                              ; No predecessors!
  br label %135

135:                                              ; preds = %134
  br label %136

136:                                              ; preds = %135
  br label %137

137:                                              ; preds = %136
  br label %138

138:                                              ; preds = %137, %108
  %139 = load ptr, ptr %18, align 8, !tbaa !160
  %140 = load ptr, ptr %12, align 8, !tbaa !152
  %141 = getelementptr inbounds nuw %struct.H5G_bt_it_bt_t, ptr %140, i32 0, i32 2
  %142 = load ptr, ptr %141, align 8, !tbaa !154
  %143 = getelementptr inbounds nuw %struct.H5G_link_table_t, ptr %142, i32 0, i32 1
  store ptr %139, ptr %143, align 8, !tbaa !159
  store i32 0, ptr %19, align 4
  br label %144

144:                                              ; preds = %133, %138
  call void @llvm.lifetime.end.p0(i64 8, ptr %18) #8
  call void @llvm.lifetime.end.p0(i64 8, ptr %17) #8
  %145 = load i32, ptr %19, align 4
  switch i32 %145, label %234 [
    i32 0, label %146
    i32 10, label %206
  ]

146:                                              ; preds = %144
  br label %147

147:                                              ; preds = %146, %61
  store i32 0, ptr %14, align 4, !tbaa !13
  br label %148

148:                                              ; preds = %202, %147
  %149 = load i32, ptr %14, align 4, !tbaa !13
  %150 = load ptr, ptr %13, align 8, !tbaa !19
  %151 = getelementptr inbounds nuw %struct.H5G_node_t, ptr %150, i32 0, i32 2
  %152 = load i32, ptr %151, align 8, !tbaa !48
  %153 = icmp ult i32 %149, %152
  br i1 %153, label %154, label %205

154:                                              ; preds = %148
  call void @llvm.lifetime.start.p0(i64 8, ptr %20) #8
  %155 = load ptr, ptr %12, align 8, !tbaa !152
  %156 = getelementptr inbounds nuw %struct.H5G_bt_it_bt_t, ptr %155, i32 0, i32 2
  %157 = load ptr, ptr %156, align 8, !tbaa !154
  %158 = getelementptr inbounds nuw %struct.H5G_link_table_t, ptr %157, i32 0, i32 0
  %159 = load i64, ptr %158, align 8, !tbaa !156
  %160 = add i64 %159, 1
  store i64 %160, ptr %158, align 8, !tbaa !156
  store i64 %159, ptr %20, align 8, !tbaa !21
  %161 = load ptr, ptr %13, align 8, !tbaa !19
  %162 = getelementptr inbounds nuw %struct.H5G_node_t, ptr %161, i32 0, i32 3
  %163 = load ptr, ptr %162, align 8, !tbaa !32
  %164 = load i32, ptr %14, align 4, !tbaa !13
  %165 = zext i32 %164 to i64
  %166 = getelementptr inbounds nuw %struct.H5G_entry_t, ptr %163, i64 %165
  %167 = load ptr, ptr %12, align 8, !tbaa !152
  %168 = getelementptr inbounds nuw %struct.H5G_bt_it_bt_t, ptr %167, i32 0, i32 1
  %169 = load ptr, ptr %168, align 8, !tbaa !161
  %170 = load ptr, ptr %12, align 8, !tbaa !152
  %171 = getelementptr inbounds nuw %struct.H5G_bt_it_bt_t, ptr %170, i32 0, i32 2
  %172 = load ptr, ptr %171, align 8, !tbaa !154
  %173 = getelementptr inbounds nuw %struct.H5G_link_table_t, ptr %172, i32 0, i32 1
  %174 = load ptr, ptr %173, align 8, !tbaa !159
  %175 = load i64, ptr %20, align 8, !tbaa !21
  %176 = getelementptr inbounds nuw %struct.H5O_link_t, ptr %174, i64 %175
  %177 = call i32 @H5G__ent_to_link(ptr noundef %166, ptr noundef %169, ptr noundef %176)
  %178 = icmp slt i32 %177, 0
  br i1 %178, label %179, label %198

179:                                              ; preds = %154
  br label %180

180:                                              ; preds = %179
  br label %181

181:                                              ; preds = %180
  br label %182

182:                                              ; preds = %181
  %183 = load i64, ptr @H5E_SYM_g, align 8, !tbaa !21
  %184 = load i64, ptr @H5E_CANTCONVERT_g, align 8, !tbaa !21
  %185 = call i32 (ptr, ptr, i32, i64, i64, ptr, ...) @H5E_printf_stack(ptr noundef @.str.2, ptr noundef @__func__.H5G__node_build_table, i32 noundef 1350, i64 noundef %183, i64 noundef %184, ptr noundef @.str.4)
  br label %186

186:                                              ; preds = %182
  br label %187

187:                                              ; preds = %186
  store i8 1, ptr %16, align 1, !tbaa !9
  %188 = load i8, ptr %16, align 1, !tbaa !9, !range !11, !noundef !12
  %189 = trunc i8 %188 to i1
  %190 = zext i1 %189 to i8
  store i8 %190, ptr %16, align 1, !tbaa !9
  br label %191

191:                                              ; preds = %187
  br label %192

192:                                              ; preds = %191
  br label %193

193:                                              ; preds = %192
  store i32 -1, ptr %15, align 4, !tbaa !13
  store i32 10, ptr %19, align 4
  br label %199

194:                                              ; No predecessors!
  br label %195

195:                                              ; preds = %194
  br label %196

196:                                              ; preds = %195
  br label %197

197:                                              ; preds = %196
  br label %198

198:                                              ; preds = %197, %154
  store i32 0, ptr %19, align 4
  br label %199

199:                                              ; preds = %193, %198
  call void @llvm.lifetime.end.p0(i64 8, ptr %20) #8
  %200 = load i32, ptr %19, align 4
  switch i32 %200, label %234 [
    i32 0, label %201
    i32 10, label %206
  ]

201:                                              ; preds = %199
  br label %202

202:                                              ; preds = %201
  %203 = load i32, ptr %14, align 4, !tbaa !13
  %204 = add i32 %203, 1
  store i32 %204, ptr %14, align 4, !tbaa !13
  br label %148, !llvm.loop !162

205:                                              ; preds = %148
  br label %206

206:                                              ; preds = %205, %199, %144, %56
  %207 = load ptr, ptr %13, align 8, !tbaa !19
  %208 = icmp ne ptr %207, null
  br i1 %208, label %209, label %231

209:                                              ; preds = %206
  %210 = load ptr, ptr %7, align 8, !tbaa !3
  %211 = load i64, ptr %9, align 8, !tbaa !21
  %212 = load ptr, ptr %13, align 8, !tbaa !19
  %213 = call i32 @H5AC_unprotect(ptr noundef %210, ptr noundef @H5AC_SNODE, i64 noundef %211, ptr noundef %212, i32 noundef 0)
  %214 = icmp slt i32 %213, 0
  br i1 %214, label %215, label %231

215:                                              ; preds = %209
  br label %216

216:                                              ; preds = %215
  br label %217

217:                                              ; preds = %216
  br label %218

218:                                              ; preds = %217
  %219 = load i64, ptr @H5E_SYM_g, align 8, !tbaa !21
  %220 = load i64, ptr @H5E_CANTUNPROTECT_g, align 8, !tbaa !21
  %221 = call i32 (ptr, ptr, i32, i64, i64, ptr, ...) @H5E_printf_stack(ptr noundef @.str.2, ptr noundef @__func__.H5G__node_build_table, i32 noundef 1356, i64 noundef %219, i64 noundef %220, ptr noundef @.str.7)
  br label %222

222:                                              ; preds = %218
  br label %223

223:                                              ; preds = %222
  store i8 1, ptr %16, align 1, !tbaa !9
  %224 = load i8, ptr %16, align 1, !tbaa !9, !range !11, !noundef !12
  %225 = trunc i8 %224 to i1
  %226 = zext i1 %225 to i8
  store i8 %226, ptr %16, align 1, !tbaa !9
  br label %227

227:                                              ; preds = %223
  br label %228

228:                                              ; preds = %227
  store i32 -1, ptr %15, align 4, !tbaa !13
  br label %229

229:                                              ; preds = %228
  br label %230

230:                                              ; preds = %229
  br label %231

231:                                              ; preds = %230, %209, %206
  br label %232

232:                                              ; preds = %231, %28
  %233 = load i32, ptr %15, align 4, !tbaa !13
  store i32 %233, ptr %6, align 4
  store i32 1, ptr %19, align 4
  br label %234

234:                                              ; preds = %232, %199, %144
  call void @llvm.lifetime.end.p0(i64 1, ptr %16) #8
  call void @llvm.lifetime.end.p0(i64 4, ptr %15) #8
  call void @llvm.lifetime.end.p0(i64 4, ptr %14) #8
  call void @llvm.lifetime.end.p0(i64 8, ptr %13) #8
  call void @llvm.lifetime.end.p0(i64 8, ptr %12) #8
  %235 = load i32, ptr %6, align 4
  ret i32 %235
}