; Function Attrs: nounwind uwtable
define range(i32 -1, 1) i32 @H5G__node_build_table(ptr noundef %0, ptr noundef readnone captures(none) %1, i64 noundef %2, ptr noundef readnone captures(none) %3, ptr noundef readonly captures(none) %4) local_unnamed_addr #0 {
  %6 = load i8, ptr @H5G_init_g, align 1, !tbaa !3, !range !7, !noundef !8
  %7 = trunc nuw i8 %6 to i1
  %8 = load i8, ptr @H5_libterm_g, align 1, !range !7
  %9 = trunc nuw i8 %8 to i1
  %10 = xor i1 %9, true
  %11 = select i1 %7, i1 true, i1 %10
  br i1 %11, label %12, label %71, !prof !9

12:                                               ; preds = %5
  %13 = tail call ptr @H5AC_protect(ptr noundef %0, ptr noundef nonnull @H5AC_SNODE, i64 noundef %2, ptr noundef %0, i32 noundef 128) #9
  %14 = icmp eq ptr %13, null
  br i1 %14, label %61, label %15

15:                                               ; preds = %12
  %16 = getelementptr inbounds nuw i8, ptr %4, i64 16
  %17 = load ptr, ptr %16, align 8, !tbaa !121
  %18 = load i64, ptr %17, align 8, !tbaa !123
  %19 = getelementptr inbounds nuw i8, ptr %13, i64 256
  %20 = load i32, ptr %19, align 8, !tbaa !33
  %21 = zext i32 %20 to i64
  %22 = add i64 %18, %21
  %23 = load i64, ptr %4, align 8, !tbaa !125
  %.not = icmp ult i64 %22, %23
  br i1 %.not, label %37, label %24

24:                                               ; preds = %15
  %25 = shl i64 %23, 1
  %. = tail call i64 @llvm.umax.i64(i64 %22, i64 %25)
  %26 = getelementptr inbounds nuw i8, ptr %17, i64 8
  %27 = load ptr, ptr %26, align 8, !tbaa !126
  %28 = mul i64 %., 48
  %29 = tail call ptr @H5MM_realloc(ptr noundef %27, i64 noundef %28) #9
  %30 = icmp eq ptr %29, null
  br i1 %30, label %33, label %.thread

.thread:                                          ; preds = %24
  %31 = load ptr, ptr %16, align 8, !tbaa !121
  %32 = getelementptr inbounds nuw i8, ptr %31, i64 8
  store ptr %29, ptr %32, align 8, !tbaa !126
  %.pre = load i32, ptr %19, align 8, !tbaa !33
  br label %37

33:                                               ; preds = %24
  %34 = load i64, ptr @H5E_SYM_g, align 8, !tbaa !10
  %35 = load i64, ptr @H5E_CANTALLOC_g, align 8, !tbaa !10
  %36 = tail call i32 (ptr, ptr, i32, i64, i64, ptr, ...) @H5E_printf_stack(ptr noundef nonnull @.str.2, ptr noundef nonnull @__func__.H5G__node_build_table, i32 noundef 1336, i64 noundef %34, i64 noundef %35, ptr noundef nonnull @.str.17) #9
  br label %.loopexit

37:                                               ; preds = %.thread, %15
  %38 = phi i32 [ %.pre, %.thread ], [ %20, %15 ]
  %.not58 = icmp eq i32 %38, 0
  br i1 %.not58, label %.loopexit, label %.lr.ph

.lr.ph:                                           ; preds = %37
  %39 = getelementptr inbounds nuw i8, ptr %13, i64 264
  %40 = getelementptr inbounds nuw i8, ptr %4, i64 8
  br label %45

41:                                               ; preds = %45
  %indvars.iv.next = add nuw nsw i64 %indvars.iv, 1
  %42 = load i32, ptr %19, align 8, !tbaa !33
  %43 = zext i32 %42 to i64
  %44 = icmp samesign ult i64 %indvars.iv.next, %43
  br i1 %44, label %45, label %.loopexit, !llvm.loop !127

45:                                               ; preds = %.lr.ph, %41
  %indvars.iv = phi i64 [ 0, %.lr.ph ], [ %indvars.iv.next, %41 ]
  %46 = load ptr, ptr %16, align 8, !tbaa !121
  %47 = load i64, ptr %46, align 8, !tbaa !123
  %48 = add i64 %47, 1
  store i64 %48, ptr %46, align 8, !tbaa !123
  %49 = load ptr, ptr %39, align 8, !tbaa !24
  %50 = getelementptr inbounds nuw %struct.H5G_entry_t, ptr %49, i64 %indvars.iv
  %51 = load ptr, ptr %40, align 8, !tbaa !128
  %52 = getelementptr inbounds nuw i8, ptr %46, i64 8
  %53 = load ptr, ptr %52, align 8, !tbaa !126
  %54 = getelementptr inbounds nuw %struct.H5O_link_t, ptr %53, i64 %47
  %55 = tail call i32 @H5G__ent_to_link(ptr noundef %50, ptr noundef %51, ptr noundef %54) #9
  %56 = icmp slt i32 %55, 0
  br i1 %56, label %57, label %41

57:                                               ; preds = %45
  %58 = load i64, ptr @H5E_SYM_g, align 8, !tbaa !10
  %59 = load i64, ptr @H5E_CANTCONVERT_g, align 8, !tbaa !10
  %60 = tail call i32 (ptr, ptr, i32, i64, i64, ptr, ...) @H5E_printf_stack(ptr noundef nonnull @.str.2, ptr noundef nonnull @__func__.H5G__node_build_table, i32 noundef 1350, i64 noundef %58, i64 noundef %59, ptr noundef nonnull @.str.4) #9
  br label %.loopexit

61:                                               ; preds = %12
  %62 = load i64, ptr @H5E_SYM_g, align 8, !tbaa !10
  %63 = load i64, ptr @H5E_CANTPROTECT_g, align 8, !tbaa !10
  %64 = tail call i32 (ptr, ptr, i32, i64, i64, ptr, ...) @H5E_printf_stack(ptr noundef nonnull @.str.2, ptr noundef nonnull @__func__.H5G__node_build_table, i32 noundef 1326, i64 noundef %62, i64 noundef %63, ptr noundef nonnull @.str.3) #9
  br label %71

.loopexit:                                        ; preds = %41, %37, %57, %33
  %.140.ph = phi i32 [ -1, %57 ], [ -1, %33 ], [ 0, %37 ], [ 0, %41 ]
  %65 = tail call i32 @H5AC_unprotect(ptr noundef %0, ptr noundef nonnull @H5AC_SNODE, i64 noundef %2, ptr noundef nonnull %13, i32 noundef 0) #9
  %66 = icmp slt i32 %65, 0
  br i1 %66, label %67, label %71

67:                                               ; preds = %.loopexit
  %68 = load i64, ptr @H5E_SYM_g, align 8, !tbaa !10
  %69 = load i64, ptr @H5E_CANTUNPROTECT_g, align 8, !tbaa !10
  %70 = tail call i32 (ptr, ptr, i32, i64, i64, ptr, ...) @H5E_printf_stack(ptr noundef nonnull @.str.2, ptr noundef nonnull @__func__.H5G__node_build_table, i32 noundef 1356, i64 noundef %68, i64 noundef %69, ptr noundef nonnull @.str.7) #9
  br label %71

71:                                               ; preds = %61, %5, %67, %.loopexit
  %.0 = phi i32 [ -1, %67 ], [ %.140.ph, %.loopexit ], [ -1, %61 ], [ 0, %5 ]
  ret i32 %.0
}